target datalayout = "e-m:e-p270:32:32-p271:32:32-p272:64:64-i64:64-i128:128-f80:128-n8:16:32:64-S128"
target triple = "x86_64-pc-linux-gnu"

%union.anon = type { i32, [12 x i8] }
%struct.prov_aes_gcm_siv_ctx_st = type { ptr, ptr, ptr, ptr, ptr, i64, i64, [32 x i8], [32 x i8], [16 x i8], [16 x i8], [16 x i8], [12 x i8], [16 x %struct.u128], i8 }
%struct.u128 = type { i64, i64 }

@.str = private unnamed_addr constant [12 x i8] c"AES-128-ECB\00", align 1
@.str.1 = private unnamed_addr constant [12 x i8] c"AES-192-ECB\00", align 1
@.str.2 = private unnamed_addr constant [12 x i8] c"AES-256-ECB\00", align 1

; Function Attrs: nounwind uwtable
define internal i32 @aes_gcm_siv_initkey(ptr noundef %0) #0 {
  %2 = alloca i32, align 4
  %3 = alloca ptr, align 8
  %4 = alloca ptr, align 8
  %5 = alloca [16 x i8], align 16
  %6 = alloca i32, align 4
  %7 = alloca i64, align 8
  %8 = alloca %union.anon, align 4
  %9 = alloca i32, align 4
  %10 = alloca ptr, align 8
  %11 = alloca i32, align 4
  %12 = alloca i32, align 4
  store ptr %0, ptr %3, align 8, !tbaa !7
  call void @llvm.lifetime.start.p0(i64 8, ptr %4) #5
  %13 = load ptr, ptr %3, align 8, !tbaa !7
  store ptr %13, ptr %4, align 8, !tbaa !9
  call void @llvm.lifetime.start.p0(i64 16, ptr %5) #5
  call void @llvm.lifetime.start.p0(i64 4, ptr %6) #5
  store i32 0, ptr %6, align 4, !tbaa !11
  call void @llvm.lifetime.start.p0(i64 8, ptr %7) #5
  call void @llvm.lifetime.start.p0(i64 16, ptr %8) #5
  call void @llvm.lifetime.start.p0(i64 4, ptr %9) #5
  call void @llvm.lifetime.start.p0(i64 8, ptr %10) #5
  store ptr null, ptr %10, align 8, !tbaa !13
  call void @llvm.lifetime.start.p0(i64 4, ptr %11) #5
  store i32 1, ptr %11, align 4, !tbaa !11
  %14 = load ptr, ptr %4, align 8, !tbaa !9
  %15 = getelementptr inbounds nuw %struct.prov_aes_gcm_siv_ctx_st, ptr %14, i32 0, i32 6
  %16 = load i64, ptr %15, align 8, !tbaa !15
  switch i64 %16, label %32 [
    i64 16, label %17
    i64 24, label %22
    i64 32, label %27
  ]

17:                                               ; preds = %1
  %18 = load ptr, ptr %4, align 8, !tbaa !9
  %19 = getelementptr inbounds nuw %struct.prov_aes_gcm_siv_ctx_st, ptr %18, i32 0, i32 3
  %20 = load ptr, ptr %19, align 8, !tbaa !22
  %21 = call ptr @EVP_CIPHER_fetch(ptr noundef %20, ptr noundef @.str, ptr noundef null)
  store ptr %21, ptr %10, align 8, !tbaa !13
  br label %33

22:                                               ; preds = %1
  %23 = load ptr, ptr %4, align 8, !tbaa !9
  %24 = getelementptr inbounds nuw %struct.prov_aes_gcm_siv_ctx_st, ptr %23, i32 0, i32 3
  %25 = load ptr, ptr %24, align 8, !tbaa !22
  %26 = call ptr @EVP_CIPHER_fetch(ptr noundef %25, ptr noundef @.str.1, ptr noundef null)
  store ptr %26, ptr %10, align 8, !tbaa !13
  br label %33

27:                                               ; preds = %1
  %28 = load ptr, ptr %4, align 8, !tbaa !9
  %29 = getelementptr inbounds nuw %struct.prov_aes_gcm_siv_ctx_st, ptr %28, i32 0, i32 3
  %30 = load ptr, ptr %29, align 8, !tbaa !22
  %31 = call ptr @EVP_CIPHER_fetch(ptr noundef %30, ptr noundef @.str.2, ptr noundef null)
  store ptr %31, ptr %10, align 8, !tbaa !13
  br label %33

32:                                               ; preds = %1
  br label %135

33:                                               ; preds = %27, %22, %17
  %34 = load ptr, ptr %4, align 8, !tbaa !9
  %35 = getelementptr inbounds nuw %struct.prov_aes_gcm_siv_ctx_st, ptr %34, i32 0, i32 0
  %36 = load ptr, ptr %35, align 8, !tbaa !23
  %37 = icmp eq ptr %36, null
  br i1 %37, label %38, label %44

38:                                               ; preds = %33
  %39 = call ptr @EVP_CIPHER_CTX_new()
  %40 = load ptr, ptr %4, align 8, !tbaa !9
  %41 = getelementptr inbounds nuw %struct.prov_aes_gcm_siv_ctx_st, ptr %40, i32 0, i32 0
  store ptr %39, ptr %41, align 8, !tbaa !23
  %42 = icmp eq ptr %39, null
  br i1 %42, label %43, label %44

43:                                               ; preds = %38
  br label %135

44:                                               ; preds = %38, %33
  %45 = load ptr, ptr %4, align 8, !tbaa !9
  %46 = getelementptr inbounds nuw %struct.prov_aes_gcm_siv_ctx_st, ptr %45, i32 0, i32 0
  %47 = load ptr, ptr %46, align 8, !tbaa !23
  %48 = load ptr, ptr %10, align 8, !tbaa !13
  %49 = load ptr, ptr %4, align 8, !tbaa !9
  %50 = getelementptr inbounds nuw %struct.prov_aes_gcm_siv_ctx_st, ptr %49, i32 0, i32 7
  %51 = getelementptr inbounds [32 x i8], ptr %50, i64 0, i64 0
  %52 = call i32 @EVP_EncryptInit_ex2(ptr noundef %47, ptr noundef %48, ptr noundef %51, ptr noundef null, ptr noundef null)
  %53 = icmp ne i32 %52, 0
  br i1 %53, label %55, label %54

54:                                               ; preds = %44
  br label %135

55:                                               ; preds = %44
  call void @llvm.memset.p0.i64(ptr align 4 %8, i8 0, i64 16, i1 false)
  %56 = getelementptr inbounds nuw [16 x i8], ptr %8, i64 0, i64 4
  %57 = load ptr, ptr %4, align 8, !tbaa !9
  %58 = getelementptr inbounds nuw %struct.prov_aes_gcm_siv_ctx_st, ptr %57, i32 0, i32 12
  %59 = getelementptr inbounds [12 x i8], ptr %58, i64 0, i64 0
  call void @llvm.memcpy.p0.p0.i64(ptr align 4 %56, ptr align 8 %59, i64 12, i1 false)
  store i64 0, ptr %7, align 8, !tbaa !3
  br label %60

60:                                               ; preds = %81, %55
  %61 = load i64, ptr %7, align 8, !tbaa !3
  %62 = icmp ult i64 %61, 16
  br i1 %62, label %63, label %84

63:                                               ; preds = %60
  %64 = load i32, ptr %6, align 4, !tbaa !11
  store i32 %64, ptr %8, align 4, !tbaa !24
  store i32 16, ptr %9, align 4, !tbaa !11
  %65 = load ptr, ptr %4, align 8, !tbaa !9
  %66 = getelementptr inbounds nuw %struct.prov_aes_gcm_siv_ctx_st, ptr %65, i32 0, i32 0
  %67 = load ptr, ptr %66, align 8, !tbaa !23
  %68 = getelementptr inbounds [16 x i8], ptr %5, i64 0, i64 0
  %69 = getelementptr inbounds [16 x i8], ptr %8, i64 0, i64 0
  %70 = call i32 @EVP_EncryptUpdate(ptr noundef %67, ptr noundef %68, ptr noundef %9, ptr noundef %69, i32 noundef 16)
  %71 = icmp ne i32 %70, 0
  br i1 %71, label %73, label %72

72:                                               ; preds = %63
  br label %135

73:                                               ; preds = %63
  %74 = load ptr, ptr %4, align 8, !tbaa !9
  %75 = getelementptr inbounds nuw %struct.prov_aes_gcm_siv_ctx_st, ptr %74, i32 0, i32 9
  %76 = load i64, ptr %7, align 8, !tbaa !3
  %77 = getelementptr inbounds nuw [16 x i8], ptr %75, i64 0, i64 %76
  %78 = getelementptr inbounds [16 x i8], ptr %5, i64 0, i64 0
  call void @llvm.memcpy.p0.p0.i64(ptr align 1 %77, ptr align 16 %78, i64 8, i1 false)
  %79 = load i32, ptr %6, align 4, !tbaa !11
  %80 = add i32 %79, 1
  store i32 %80, ptr %6, align 4, !tbaa !11
  br label %81

81:                                               ; preds = %73
  %82 = load i64, ptr %7, align 8, !tbaa !3
  %83 = add i64 %82, 8
  store i64 %83, ptr %7, align 8, !tbaa !3
  br label %60, !llvm.loop !25

84:                                               ; preds = %60
  store i64 0, ptr %7, align 8, !tbaa !3
  br label %85

85:                                               ; preds = %109, %84
  %86 = load i64, ptr %7, align 8, !tbaa !3
  %87 = load ptr, ptr %4, align 8, !tbaa !9
  %88 = getelementptr inbounds nuw %struct.prov_aes_gcm_siv_ctx_st, ptr %87, i32 0, i32 6
  %89 = load i64, ptr %88, align 8, !tbaa !15
  %90 = icmp ult i64 %86, %89
  br i1 %90, label %91, label %112

91:                                               ; preds = %85
  %92 = load i32, ptr %6, align 4, !tbaa !11
  store i32 %92, ptr %8, align 4, !tbaa !24
  store i32 16, ptr %9, align 4, !tbaa !11
  %93 = load ptr, ptr %4, align 8, !tbaa !9
  %94 = getelementptr inbounds nuw %struct.prov_aes_gcm_siv_ctx_st, ptr %93, i32 0, i32 0
  %95 = load ptr, ptr %94, align 8, !tbaa !23
  %96 = getelementptr inbounds [16 x i8], ptr %5, i64 0, i64 0
  %97 = getelementptr inbounds [16 x i8], ptr %8, i64 0, i64 0
  %98 = call i32 @EVP_EncryptUpdate(ptr noundef %95, ptr noundef %96, ptr noundef %9, ptr noundef %97, i32 noundef 16)
  %99 = icmp ne i32 %98, 0
  br i1 %99, label %101, label %100

100:                                              ; preds = %91
  br label %135

101:                                              ; preds = %91
  %102 = load ptr, ptr %4, align 8, !tbaa !9
  %103 = getelementptr inbounds nuw %struct.prov_aes_gcm_siv_ctx_st, ptr %102, i32 0, i32 8
  %104 = load i64, ptr %7, align 8, !tbaa !3
  %105 = getelementptr inbounds nuw [32 x i8], ptr %103, i64 0, i64 %104
  %106 = getelementptr inbounds [16 x i8], ptr %5, i64 0, i64 0
  call void @llvm.memcpy.p0.p0.i64(ptr align 1 %105, ptr align 16 %106, i64 8, i1 false)
  %107 = load i32, ptr %6, align 4, !tbaa !11
  %108 = add i32 %107, 1
  store i32 %108, ptr %6, align 4, !tbaa !11
  br label %109

109:                                              ; preds = %101
  %110 = load i64, ptr %7, align 8, !tbaa !3
  %111 = add i64 %110, 8
  store i64 %111, ptr %7, align 8, !tbaa !3
  br label %85, !llvm.loop !27

112:                                              ; preds = %85
  %113 = load ptr, ptr %4, align 8, !tbaa !9
  %114 = getelementptr inbounds nuw %struct.prov_aes_gcm_siv_ctx_st, ptr %113, i32 0, i32 0
  %115 = load ptr, ptr %114, align 8, !tbaa !23
  %116 = load ptr, ptr %10, align 8, !tbaa !13
  %117 = load ptr, ptr %4, align 8, !tbaa !9
  %118 = getelementptr inbounds nuw %struct.prov_aes_gcm_siv_ctx_st, ptr %117, i32 0, i32 8
  %119 = getelementptr inbounds [32 x i8], ptr %118, i64 0, i64 0
  %120 = call i32 @EVP_EncryptInit_ex2(ptr noundef %115, ptr noundef %116, ptr noundef %119, ptr noundef null, ptr noundef null)
  %121 = icmp ne i32 %120, 0
  br i1 %121, label %123, label %122

122:                                              ; preds = %112
  br label %135

123:                                              ; preds = %112
  %124 = load ptr, ptr %4, align 8, !tbaa !9
  %125 = getelementptr inbounds nuw %struct.prov_aes_gcm_siv_ctx_st, ptr %124, i32 0, i32 14
  %126 = load i8, ptr %125, align 8
  %127 = and i8 %126, -9
  %128 = or i8 %127, 0
  store i8 %128, ptr %125, align 8
  %129 = load ptr, ptr %4, align 8, !tbaa !9
  %130 = getelementptr inbounds nuw %struct.prov_aes_gcm_siv_ctx_st, ptr %129, i32 0, i32 14
  %131 = load i8, ptr %130, align 8
  %132 = and i8 %131, -17
  %133 = or i8 %132, 0
  store i8 %133, ptr %130, align 8
  %134 = load ptr, ptr %10, align 8, !tbaa !13
  call void @EVP_CIPHER_free(ptr noundef %134)
  store i32 1, ptr %2, align 4
  store i32 1, ptr %12, align 4
  br label %142

135:                                              ; preds = %122, %100, %72, %54, %43, %32
  %136 = load ptr, ptr %4, align 8, !tbaa !9
  %137 = getelementptr inbounds nuw %struct.prov_aes_gcm_siv_ctx_st, ptr %136, i32 0, i32 0
  %138 = load ptr, ptr %137, align 8, !tbaa !23
  call void @EVP_CIPHER_CTX_free(ptr noundef %138)
  %139 = load ptr, ptr %10, align 8, !tbaa !13
  call void @EVP_CIPHER_free(ptr noundef %139)
  %140 = load ptr, ptr %4, align 8, !tbaa !9
  %141 = getelementptr inbounds nuw %struct.prov_aes_gcm_siv_ctx_st, ptr %140, i32 0, i32 0
  store ptr null, ptr %141, align 8, !tbaa !23
  store i32 0, ptr %2, align 4
  store i32 1, ptr %12, align 4
  br label %142

142:                                              ; preds = %135, %123
  call void @llvm.lifetime.end.p0(i64 4, ptr %11) #5
  call void @llvm.lifetime.end.p0(i64 8, ptr %10) #5
  call void @llvm.lifetime.end.p0(i64 4, ptr %9) #5
  call void @llvm.lifetime.end.p0(i64 16, ptr %8) #5
  call void @llvm.lifetime.end.p0(i64 8, ptr %7) #5
  call void @llvm.lifetime.end.p0(i64 4, ptr %6) #5
  call void @llvm.lifetime.end.p0(i64 16, ptr %5) #5
  call void @llvm.lifetime.end.p0(i64 8, ptr %4) #5
  %143 = load i32, ptr %2, align 4
  ret i32 %143
}