; Function Attrs: nounwind uwtable
define internal range(i32 0, 2) i32 @aes_gcm_siv_initkey(ptr noundef %0) #1 {
  %2 = alloca [16 x i8], align 16
  %3 = alloca %union.anon, align 4
  %4 = alloca i32, align 4
  call void @llvm.lifetime.start.p0(i64 16, ptr nonnull %2) #7
  call void @llvm.lifetime.start.p0(i64 16, ptr nonnull %3) #7
  call void @llvm.lifetime.start.p0(i64 4, ptr nonnull %4) #7
  %5 = getelementptr inbounds nuw i8, ptr %0, i64 48
  %6 = load i64, ptr %5, align 8, !tbaa !3
  switch i64 %6, label %.loopexit [
    i64 16, label %9
    i64 24, label %7
    i64 32, label %8
  ]

7:                                                ; preds = %1
  br label %9

8:                                                ; preds = %1
  br label %9

9:                                                ; preds = %1, %8, %7
  %.str.2.sink = phi ptr [ @.str.2, %8 ], [ @.str.1, %7 ], [ @.str, %1 ]
  %10 = getelementptr inbounds nuw i8, ptr %0, i64 24
  %11 = load ptr, ptr %10, align 8, !tbaa !15
  %12 = tail call ptr @EVP_CIPHER_fetch(ptr noundef %11, ptr noundef nonnull %.str.2.sink, ptr noundef null) #7
  %13 = load ptr, ptr %0, align 8, !tbaa !16
  %14 = icmp eq ptr %13, null
  br i1 %14, label %15, label %18

15:                                               ; preds = %9
  %16 = tail call ptr @EVP_CIPHER_CTX_new() #7
  store ptr %16, ptr %0, align 8, !tbaa !16
  %17 = icmp eq ptr %16, null
  br i1 %17, label %.loopexit, label %18

18:                                               ; preds = %15, %9
  %19 = phi ptr [ %16, %15 ], [ %13, %9 ]
  %20 = getelementptr inbounds nuw i8, ptr %0, i64 56
  %21 = tail call i32 @EVP_EncryptInit_ex2(ptr noundef nonnull %19, ptr noundef %12, ptr noundef nonnull %20, ptr noundef null, ptr noundef null) #7
  %.not = icmp eq i32 %21, 0
  br i1 %.not, label %.loopexit, label %22

22:                                               ; preds = %18
  %23 = getelementptr inbounds nuw i8, ptr %3, i64 4
  %24 = getelementptr inbounds nuw i8, ptr %0, i64 168
  call void @llvm.memcpy.p0.p0.i64(ptr noundef nonnull align 4 dereferenceable(12) %23, ptr noundef nonnull align 8 dereferenceable(12) %24, i64 12, i1 false)
  %25 = getelementptr inbounds nuw i8, ptr %0, i64 120
  br label %28

.preheader:                                       ; preds = %32
  %26 = load i64, ptr %5, align 8, !tbaa !3
  %.not49 = icmp eq i64 %26, 0
  br i1 %.not49, label %._crit_edge, label %.lr.ph

.lr.ph:                                           ; preds = %.preheader
  %27 = getelementptr inbounds nuw i8, ptr %0, i64 88
  br label %36

28:                                               ; preds = %22, %32
  %29 = phi i1 [ true, %22 ], [ false, %32 ]
  %.03646 = phi i64 [ 0, %22 ], [ 8, %32 ]
  %.03845 = phi i32 [ 0, %22 ], [ %35, %32 ]
  store i32 %.03845, ptr %3, align 4, !tbaa !17
  store i32 16, ptr %4, align 4, !tbaa !18
  %30 = load ptr, ptr %0, align 8, !tbaa !16
  %31 = call i32 @EVP_EncryptUpdate(ptr noundef %30, ptr noundef nonnull %2, ptr noundef nonnull %4, ptr noundef nonnull %3, i32 noundef 16) #7
  %.not42 = icmp eq i32 %31, 0
  br i1 %.not42, label %.loopexit, label %32

32:                                               ; preds = %28
  %33 = getelementptr inbounds nuw [16 x i8], ptr %25, i64 0, i64 %.03646
  %34 = load i64, ptr %2, align 16
  store i64 %34, ptr %33, align 1
  %35 = add nuw nsw i32 %.03845, 1
  br i1 %29, label %28, label %.preheader, !llvm.loop !19

36:                                               ; preds = %.lr.ph, %39
  %.13748 = phi i64 [ 0, %.lr.ph ], [ %43, %39 ]
  %.13947 = phi i32 [ 2, %.lr.ph ], [ %42, %39 ]
  store i32 %.13947, ptr %3, align 4, !tbaa !17
  store i32 16, ptr %4, align 4, !tbaa !18
  %37 = load ptr, ptr %0, align 8, !tbaa !16
  %38 = call i32 @EVP_EncryptUpdate(ptr noundef %37, ptr noundef nonnull %2, ptr noundef nonnull %4, ptr noundef nonnull %3, i32 noundef 16) #7
  %.not41 = icmp eq i32 %38, 0
  br i1 %.not41, label %.loopexit, label %39

39:                                               ; preds = %36
  %40 = getelementptr inbounds nuw [32 x i8], ptr %27, i64 0, i64 %.13748
  %41 = load i64, ptr %2, align 16
  store i64 %41, ptr %40, align 1
  %42 = add i32 %.13947, 1
  %43 = add i64 %.13748, 8
  %44 = load i64, ptr %5, align 8, !tbaa !3
  %45 = icmp ult i64 %43, %44
  br i1 %45, label %36, label %._crit_edge, !llvm.loop !21

._crit_edge:                                      ; preds = %39, %.preheader
  %46 = load ptr, ptr %0, align 8, !tbaa !16
  %47 = getelementptr inbounds nuw i8, ptr %0, i64 88
  %48 = call i32 @EVP_EncryptInit_ex2(ptr noundef %46, ptr noundef %12, ptr noundef nonnull %47, ptr noundef null, ptr noundef null) #7
  %.not40 = icmp eq i32 %48, 0
  br i1 %.not40, label %.loopexit, label %49

49:                                               ; preds = %._crit_edge
  %50 = getelementptr inbounds nuw i8, ptr %0, i64 440
  %51 = load i8, ptr %50, align 8
  %52 = and i8 %51, -25
  store i8 %52, ptr %50, align 8
  call void @EVP_CIPHER_free(ptr noundef %12) #7
  br label %54

.loopexit:                                        ; preds = %28, %36, %._crit_edge, %18, %15, %1
  %.1 = phi ptr [ null, %1 ], [ %12, %15 ], [ %12, %._crit_edge ], [ %12, %18 ], [ %12, %36 ], [ %12, %28 ]
  %53 = load ptr, ptr %0, align 8, !tbaa !16
  call void @EVP_CIPHER_CTX_free(ptr noundef %53) #7
  call void @EVP_CIPHER_free(ptr noundef %.1) #7
  store ptr null, ptr %0, align 8, !tbaa !16
  br label %54

54:                                               ; preds = %.loopexit, %49
  %.0 = phi i32 [ 0, %.loopexit ], [ 1, %49 ]
  call void @llvm.lifetime.end.p0(i64 4, ptr nonnull %4) #7
  call void @llvm.lifetime.end.p0(i64 16, ptr nonnull %3) #7
  call void @llvm.lifetime.end.p0(i64 16, ptr nonnull %2) #7
  ret i32 %.0
}